target datalayout = "e-m:e-p270:32:32-p271:32:32-p272:64:64-i64:64-i128:128-f80:128-n8:16:32:64-S128"
target triple = "x86_64-unknown-linux-gnu"

%struct.ESPState = type { %struct.DeviceState, [16 x i8], [16 x i8], ptr, ptr, i8, i8, i32, i32, i32, %struct.Fifo8, %struct.SCSIBus, ptr, ptr, %struct.Fifo8, i8, i8, i32, i8, i8, i32, i32, ptr, ptr, ptr, ptr, ptr, i8, i8, i32, i32, i8, i32, i32, [16 x i8], [32 x i8], i32 }
%struct.DeviceState = type { %struct.Object, ptr, ptr, i8, i8, i64, ptr, i32, i8, ptr, %struct.NamedGPIOListHead, %struct.NamedClockListHead, %struct.BusStateHead, i32, i32, i32, %struct.ResettableState, ptr, %struct.MemReentrancyGuard }
%struct.Object = type { ptr, ptr, ptr, i32, ptr }
%struct.NamedGPIOListHead = type { ptr }
%struct.NamedClockListHead = type { ptr }
%struct.BusStateHead = type { ptr }
%struct.ResettableState = type { i32, i8, i8 }
%struct.MemReentrancyGuard = type { i8 }
%struct.SCSIBus = type { %struct.BusState, i32, %struct.SCSISense, ptr, i32 }
%struct.BusState = type { %struct.Object, ptr, ptr, ptr, i32, i8, i8, i32, %union.BusChildHead, %struct.BusStateEntry, %struct.ResettableState }
%union.BusChildHead = type { %struct.QTailQLink }
%struct.QTailQLink = type { ptr, ptr }
%struct.BusStateEntry = type { ptr, ptr }
%struct.SCSISense = type { i8, i8, i8 }
%struct.Fifo8 = type { ptr, i32, i32, i32 }

; Function Attrs: nounwind sspstrong uwtable
define internal void @esp_set_pdma_cb(ptr noundef %s, i32 noundef %cb) #0 {
entry:
  %s.addr = alloca ptr, align 8
  %cb.addr = alloca i32, align 4
  store ptr %s, ptr %s.addr, align 8
  store i32 %cb, ptr %cb.addr, align 4
  %0 = load i32, ptr %cb.addr, align 4
  %conv = trunc i32 %0 to i8
  %1 = load ptr, ptr %s.addr, align 8
  %pdma_cb = getelementptr inbounds %struct.ESPState, ptr %1, i32 0, i32 27
  store i8 %conv, ptr %pdma_cb, align 8
  ret void
}

; Function Attrs: nounwind sspstrong uwtable
define internal void @handle_satn(ptr noundef %s) #0 {
entry:
  %s.addr = alloca ptr, align 8
  %cmdlen = alloca i32, align 4
  store ptr %s, ptr %s.addr, align 8
  %0 = load ptr, ptr %s.addr, align 8
  %dma = getelementptr inbounds %struct.ESPState, ptr %0, i32 0, i32 9
  %1 = load i32, ptr %dma, align 4
  %tobool = icmp ne i32 %1, 0
  br i1 %tobool, label %land.lhs.true, label %if.end

land.lhs.true:                                    ; preds = %entry
  %2 = load ptr, ptr %s.addr, align 8
  %dma_enabled = getelementptr inbounds %struct.ESPState, ptr %2, i32 0, i32 20
  %3 = load i32, ptr %dma_enabled, align 4
  %tobool1 = icmp ne i32 %3, 0
  br i1 %tobool1, label %if.end, label %if.then

if.then:                                          ; preds = %land.lhs.true
  %4 = load ptr, ptr %s.addr, align 8
  %dma_cb = getelementptr inbounds %struct.ESPState, ptr %4, i32 0, i32 26
  store ptr @handle_satn, ptr %dma_cb, align 8
  br label %if.end9

if.end:                                           ; preds = %land.lhs.true, %entry
  %5 = load ptr, ptr %s.addr, align 8
  call void @esp_set_pdma_cb(ptr noundef %5, i32 noundef 0)
  %6 = load ptr, ptr %s.addr, align 8
  %call = call i32 @get_cmd(ptr noundef %6, i32 noundef 32)
  store i32 %call, ptr %cmdlen, align 4
  %7 = load i32, ptr %cmdlen, align 4
  %cmp = icmp sgt i32 %7, 0
  br i1 %cmp, label %if.then2, label %if.else

if.then2:                                         ; preds = %if.end
  %8 = load ptr, ptr %s.addr, align 8
  %cmdfifo_cdb_offset = getelementptr inbounds %struct.ESPState, ptr %8, i32 0, i32 15
  store i8 1, ptr %cmdfifo_cdb_offset, align 8
  %9 = load ptr, ptr %s.addr, align 8
  %do_cmd = getelementptr inbounds %struct.ESPState, ptr %9, i32 0, i32 17
  store i32 0, ptr %do_cmd, align 4
  %10 = load ptr, ptr %s.addr, align 8
  call void @do_cmd(ptr noundef %10)
  br label %if.end9

if.else:                                          ; preds = %if.end
  %11 = load i32, ptr %cmdlen, align 4
  %cmp3 = icmp eq i32 %11, 0
  br i1 %cmp3, label %if.then4, label %if.end8

if.then4:                                         ; preds = %if.else
  %12 = load ptr, ptr %s.addr, align 8
  %do_cmd5 = getelementptr inbounds %struct.ESPState, ptr %12, i32 0, i32 17
  store i32 1, ptr %do_cmd5, align 4
  %13 = load ptr, ptr %s.addr, align 8
  %rregs = getelementptr inbounds %struct.ESPState, ptr %13, i32 0, i32 1
  %arrayidx = getelementptr [16 x i8], ptr %rregs, i64 0, i64 6
  store i8 4, ptr %arrayidx, align 2
  %14 = load ptr, ptr %s.addr, align 8
  %rregs6 = getelementptr inbounds %struct.ESPState, ptr %14, i32 0, i32 1
  %arrayidx7 = getelementptr [16 x i8], ptr %rregs6, i64 0, i64 4
  store i8 2, ptr %arrayidx7, align 4
  br label %if.end8

if.end8:                                          ; preds = %if.then4, %if.else
  br label %if.end9

if.end9:                                          ; preds = %if.end8, %if.then2, %if.then
  ret void
}